ARM GAS  C:\Users\leonm\AppData\Local\Temp\ccOU2i1Z.s 			page 1


   1              		.syntax unified
   2              		.cpu cortex-m3
   3              		.fpu softvfp
   4              		.eabi_attribute 20, 1
   5              		.eabi_attribute 21, 1
   6              		.eabi_attribute 23, 3
   7              		.eabi_attribute 24, 1
   8              		.eabi_attribute 25, 1
   9              		.eabi_attribute 26, 1
  10              		.eabi_attribute 30, 1
  11              		.eabi_attribute 34, 1
  12              		.eabi_attribute 18, 4
  13              		.thumb
  14              		.syntax unified
  15              		.file	"main.c"
  16              		.text
  17              	.Ltext0:
  18              		.cfi_sections	.debug_frame
  19              		.section	.text.BMP180_WriteByte,"ax",%progbits
  20              		.align	2
  21              		.global	BMP180_WriteByte
  22              		.thumb
  23              		.thumb_func
  24              		.type	BMP180_WriteByte, %function
  25              	BMP180_WriteByte:
  26              	.LFB64:
  27              		.file 1 "main.c"
   1:main.c        **** #include "project.h"
   2:main.c        **** #include <stdio.h>
   3:main.c        **** 
   4:main.c        **** #define BMP180_ADDR 0x77  // BMP180 I2C addresse
   5:main.c        **** 
   6:main.c        **** // kalibrations variablen
   7:main.c        **** int16 AC1, AC2, AC3, B1, B2, MB, MC, MD;
   8:main.c        **** uint16 AC4, AC5, AC6;
   9:main.c        **** 
  10:main.c        **** 
  11:main.c        **** 
  12:main.c        **** 
  13:main.c        **** void BMP180_WriteByte(uint8 reg, uint8 value)
  14:main.c        **** {
  28              		.loc 1 14 0
  29              		.cfi_startproc
  30              		@ args = 0, pretend = 0, frame = 8
  31              		@ frame_needed = 0, uses_anonymous_args = 0
  32              	.LVL0:
  33 0000 00B5     		push	{lr}
  34              		.cfi_def_cfa_offset 4
  35              		.cfi_offset 14, -4
  36 0002 83B0     		sub	sp, sp, #12
  37              		.cfi_def_cfa_offset 16
  15:main.c        ****     uint8 data[2] = { reg, value };
  38              		.loc 1 15 0
  39 0004 8DF80400 		strb	r0, [sp, #4]
  40 0008 8DF80510 		strb	r1, [sp, #5]
  16:main.c        ****     I2C_MasterWriteBuf(BMP180_ADDR, data, 2, I2C_MODE_COMPLETE_XFER);
  41              		.loc 1 16 0
ARM GAS  C:\Users\leonm\AppData\Local\Temp\ccOU2i1Z.s 			page 2


  42 000c 0023     		movs	r3, #0
  43 000e 0222     		movs	r2, #2
  44 0010 01A9     		add	r1, sp, #4
  45              	.LVL1:
  46 0012 7720     		movs	r0, #119
  47              	.LVL2:
  48 0014 FFF7FEFF 		bl	I2C_MasterWriteBuf
  49              	.LVL3:
  50              	.L2:
  17:main.c        ****     while (I2C_MasterStatus() & I2C_MSTAT_XFER_INP);
  51              		.loc 1 17 0 discriminator 1
  52 0018 FFF7FEFF 		bl	I2C_MasterStatus
  53              	.LVL4:
  54 001c 10F0040F 		tst	r0, #4
  55 0020 FAD1     		bne	.L2
  18:main.c        **** }
  56              		.loc 1 18 0
  57 0022 03B0     		add	sp, sp, #12
  58              		.cfi_def_cfa_offset 4
  59              		@ sp needed
  60 0024 5DF804FB 		ldr	pc, [sp], #4
  61              		.cfi_endproc
  62              	.LFE64:
  63              		.size	BMP180_WriteByte, .-BMP180_WriteByte
  64              		.section	.text.BMP180_ReadWord,"ax",%progbits
  65              		.align	2
  66              		.global	BMP180_ReadWord
  67              		.thumb
  68              		.thumb_func
  69              		.type	BMP180_ReadWord, %function
  70              	BMP180_ReadWord:
  71              	.LFB65:
  19:main.c        **** 
  20:main.c        **** uint16 BMP180_ReadWord(uint8 reg)
  21:main.c        **** {
  72              		.loc 1 21 0
  73              		.cfi_startproc
  74              		@ args = 0, pretend = 0, frame = 16
  75              		@ frame_needed = 0, uses_anonymous_args = 0
  76              	.LVL5:
  77 0000 00B5     		push	{lr}
  78              		.cfi_def_cfa_offset 4
  79              		.cfi_offset 14, -4
  80 0002 85B0     		sub	sp, sp, #20
  81              		.cfi_def_cfa_offset 24
  82 0004 04A9     		add	r1, sp, #16
  83 0006 01F8090D 		strb	r0, [r1, #-9]!
  22:main.c        ****     uint8 data[2];
  23:main.c        ****     I2C_MasterWriteBuf(BMP180_ADDR, &reg, 1, I2C_MODE_COMPLETE_XFER);
  84              		.loc 1 23 0
  85 000a 0023     		movs	r3, #0
  86 000c 0122     		movs	r2, #1
  87 000e 7720     		movs	r0, #119
  88              	.LVL6:
  89 0010 FFF7FEFF 		bl	I2C_MasterWriteBuf
  90              	.LVL7:
  91              	.L5:
ARM GAS  C:\Users\leonm\AppData\Local\Temp\ccOU2i1Z.s 			page 3


  24:main.c        ****     while (I2C_MasterStatus() & I2C_MSTAT_XFER_INP);
  92              		.loc 1 24 0 discriminator 1
  93 0014 FFF7FEFF 		bl	I2C_MasterStatus
  94              	.LVL8:
  95 0018 10F0040F 		tst	r0, #4
  96 001c FAD1     		bne	.L5
  25:main.c        **** 
  26:main.c        ****     I2C_MasterReadBuf(BMP180_ADDR, data, 2, I2C_MODE_COMPLETE_XFER);
  97              		.loc 1 26 0
  98 001e 0023     		movs	r3, #0
  99 0020 0222     		movs	r2, #2
 100 0022 03A9     		add	r1, sp, #12
 101 0024 7720     		movs	r0, #119
 102 0026 FFF7FEFF 		bl	I2C_MasterReadBuf
 103              	.LVL9:
 104              	.L6:
  27:main.c        ****     while (I2C_MasterStatus() & I2C_MSTAT_XFER_INP);
 105              		.loc 1 27 0 discriminator 1
 106 002a FFF7FEFF 		bl	I2C_MasterStatus
 107              	.LVL10:
 108 002e 10F0040F 		tst	r0, #4
 109 0032 FAD1     		bne	.L6
  28:main.c        **** 
  29:main.c        ****     return ((uint16)data[0] << 8) | data[1];
 110              		.loc 1 29 0
 111 0034 9DF80C00 		ldrb	r0, [sp, #12]	@ zero_extendqisi2
 112 0038 9DF80D30 		ldrb	r3, [sp, #13]	@ zero_extendqisi2
  30:main.c        **** }
 113              		.loc 1 30 0
 114 003c 43EA0020 		orr	r0, r3, r0, lsl #8
 115 0040 05B0     		add	sp, sp, #20
 116              		.cfi_def_cfa_offset 4
 117              		@ sp needed
 118 0042 5DF804FB 		ldr	pc, [sp], #4
 119              		.cfi_endproc
 120              	.LFE65:
 121              		.size	BMP180_ReadWord, .-BMP180_ReadWord
 122 0046 00BF     		.section	.text.BMP180_ReadCalibrationData,"ax",%progbits
 123              		.align	2
 124              		.global	BMP180_ReadCalibrationData
 125              		.thumb
 126              		.thumb_func
 127              		.type	BMP180_ReadCalibrationData, %function
 128              	BMP180_ReadCalibrationData:
 129              	.LFB66:
  31:main.c        **** 
  32:main.c        **** 
  33:main.c        **** void BMP180_ReadCalibrationData(void)
  34:main.c        **** {
 130              		.loc 1 34 0
 131              		.cfi_startproc
 132              		@ args = 0, pretend = 0, frame = 0
 133              		@ frame_needed = 0, uses_anonymous_args = 0
 134 0000 08B5     		push	{r3, lr}
 135              		.cfi_def_cfa_offset 8
 136              		.cfi_offset 3, -8
 137              		.cfi_offset 14, -4
ARM GAS  C:\Users\leonm\AppData\Local\Temp\ccOU2i1Z.s 			page 4


  35:main.c        ****     AC1 = (int16)BMP180_ReadWord(0xAA);
 138              		.loc 1 35 0
 139 0002 AA20     		movs	r0, #170
 140 0004 FFF7FEFF 		bl	BMP180_ReadWord
 141              	.LVL11:
 142 0008 1A4B     		ldr	r3, .L10
 143 000a 1880     		strh	r0, [r3]	@ movhi
  36:main.c        ****     AC2 = (int16)BMP180_ReadWord(0xAC);
 144              		.loc 1 36 0
 145 000c AC20     		movs	r0, #172
 146 000e FFF7FEFF 		bl	BMP180_ReadWord
 147              	.LVL12:
 148 0012 194B     		ldr	r3, .L10+4
 149 0014 1880     		strh	r0, [r3]	@ movhi
  37:main.c        ****     AC3 = (int16)BMP180_ReadWord(0xAE);
 150              		.loc 1 37 0
 151 0016 AE20     		movs	r0, #174
 152 0018 FFF7FEFF 		bl	BMP180_ReadWord
 153              	.LVL13:
 154 001c 174B     		ldr	r3, .L10+8
 155 001e 1880     		strh	r0, [r3]	@ movhi
  38:main.c        ****     AC4 = BMP180_ReadWord(0xB0);
 156              		.loc 1 38 0
 157 0020 B020     		movs	r0, #176
 158 0022 FFF7FEFF 		bl	BMP180_ReadWord
 159              	.LVL14:
 160 0026 164B     		ldr	r3, .L10+12
 161 0028 1880     		strh	r0, [r3]	@ movhi
  39:main.c        ****     AC5 = BMP180_ReadWord(0xB2);
 162              		.loc 1 39 0
 163 002a B220     		movs	r0, #178
 164 002c FFF7FEFF 		bl	BMP180_ReadWord
 165              	.LVL15:
 166 0030 144B     		ldr	r3, .L10+16
 167 0032 1880     		strh	r0, [r3]	@ movhi
  40:main.c        ****     AC6 = BMP180_ReadWord(0xB4);
 168              		.loc 1 40 0
 169 0034 B420     		movs	r0, #180
 170 0036 FFF7FEFF 		bl	BMP180_ReadWord
 171              	.LVL16:
 172 003a 134B     		ldr	r3, .L10+20
 173 003c 1880     		strh	r0, [r3]	@ movhi
  41:main.c        ****     B1  = (int16)BMP180_ReadWord(0xB6);
 174              		.loc 1 41 0
 175 003e B620     		movs	r0, #182
 176 0040 FFF7FEFF 		bl	BMP180_ReadWord
 177              	.LVL17:
 178 0044 114B     		ldr	r3, .L10+24
 179 0046 1880     		strh	r0, [r3]	@ movhi
  42:main.c        ****     B2  = (int16)BMP180_ReadWord(0xB8);
 180              		.loc 1 42 0
 181 0048 B820     		movs	r0, #184
 182 004a FFF7FEFF 		bl	BMP180_ReadWord
 183              	.LVL18:
 184 004e 104B     		ldr	r3, .L10+28
 185 0050 1880     		strh	r0, [r3]	@ movhi
  43:main.c        ****     MB  = (int16)BMP180_ReadWord(0xBA);
ARM GAS  C:\Users\leonm\AppData\Local\Temp\ccOU2i1Z.s 			page 5


 186              		.loc 1 43 0
 187 0052 BA20     		movs	r0, #186
 188 0054 FFF7FEFF 		bl	BMP180_ReadWord
 189              	.LVL19:
 190 0058 0E4B     		ldr	r3, .L10+32
 191 005a 1880     		strh	r0, [r3]	@ movhi
  44:main.c        ****     MC  = (int16)BMP180_ReadWord(0xBC);
 192              		.loc 1 44 0
 193 005c BC20     		movs	r0, #188
 194 005e FFF7FEFF 		bl	BMP180_ReadWord
 195              	.LVL20:
 196 0062 0D4B     		ldr	r3, .L10+36
 197 0064 1880     		strh	r0, [r3]	@ movhi
  45:main.c        ****     MD  = (int16)BMP180_ReadWord(0xBE);
 198              		.loc 1 45 0
 199 0066 BE20     		movs	r0, #190
 200 0068 FFF7FEFF 		bl	BMP180_ReadWord
 201              	.LVL21:
 202 006c 0B4B     		ldr	r3, .L10+40
 203 006e 1880     		strh	r0, [r3]	@ movhi
 204 0070 08BD     		pop	{r3, pc}
 205              	.L11:
 206 0072 00BF     		.align	2
 207              	.L10:
 208 0074 00000000 		.word	AC1
 209 0078 00000000 		.word	AC2
 210 007c 00000000 		.word	AC3
 211 0080 00000000 		.word	AC4
 212 0084 00000000 		.word	AC5
 213 0088 00000000 		.word	AC6
 214 008c 00000000 		.word	B1
 215 0090 00000000 		.word	B2
 216 0094 00000000 		.word	MB
 217 0098 00000000 		.word	MC
 218 009c 00000000 		.word	MD
 219              		.cfi_endproc
 220              	.LFE66:
 221              		.size	BMP180_ReadCalibrationData, .-BMP180_ReadCalibrationData
 222              		.section	.text.BMP180_ReadRawTemperature,"ax",%progbits
 223              		.align	2
 224              		.global	BMP180_ReadRawTemperature
 225              		.thumb
 226              		.thumb_func
 227              		.type	BMP180_ReadRawTemperature, %function
 228              	BMP180_ReadRawTemperature:
 229              	.LFB67:
  46:main.c        **** }
  47:main.c        **** 
  48:main.c        **** int16 BMP180_ReadRawTemperature(void)
  49:main.c        **** {
 230              		.loc 1 49 0
 231              		.cfi_startproc
 232              		@ args = 0, pretend = 0, frame = 0
 233              		@ frame_needed = 0, uses_anonymous_args = 0
 234 0000 08B5     		push	{r3, lr}
 235              		.cfi_def_cfa_offset 8
 236              		.cfi_offset 3, -8
ARM GAS  C:\Users\leonm\AppData\Local\Temp\ccOU2i1Z.s 			page 6


 237              		.cfi_offset 14, -4
  50:main.c        ****     BMP180_WriteByte(0xF4, 0x2E);
 238              		.loc 1 50 0
 239 0002 2E21     		movs	r1, #46
 240 0004 F420     		movs	r0, #244
 241 0006 FFF7FEFF 		bl	BMP180_WriteByte
 242              	.LVL22:
  51:main.c        ****     CyDelay(5); 
 243              		.loc 1 51 0
 244 000a 0520     		movs	r0, #5
 245 000c FFF7FEFF 		bl	CyDelay
 246              	.LVL23:
  52:main.c        ****     return BMP180_ReadWord(0xF6);
 247              		.loc 1 52 0
 248 0010 F620     		movs	r0, #246
 249 0012 FFF7FEFF 		bl	BMP180_ReadWord
 250              	.LVL24:
  53:main.c        **** }
 251              		.loc 1 53 0
 252 0016 00B2     		sxth	r0, r0
 253 0018 08BD     		pop	{r3, pc}
 254              		.cfi_endproc
 255              	.LFE67:
 256              		.size	BMP180_ReadRawTemperature, .-BMP180_ReadRawTemperature
 257 001a 00BF     		.section	.text.BMP180_ReadRawPressure,"ax",%progbits
 258              		.align	2
 259              		.global	BMP180_ReadRawPressure
 260              		.thumb
 261              		.thumb_func
 262              		.type	BMP180_ReadRawPressure, %function
 263              	BMP180_ReadRawPressure:
 264              	.LFB68:
  54:main.c        **** 
  55:main.c        **** int32 BMP180_ReadRawPressure(void)
  56:main.c        **** {
 265              		.loc 1 56 0
 266              		.cfi_startproc
 267              		@ args = 0, pretend = 0, frame = 0
 268              		@ frame_needed = 0, uses_anonymous_args = 0
 269 0000 08B5     		push	{r3, lr}
 270              		.cfi_def_cfa_offset 8
 271              		.cfi_offset 3, -8
 272              		.cfi_offset 14, -4
  57:main.c        ****     BMP180_WriteByte(0xF4, 0x34);
 273              		.loc 1 57 0
 274 0002 3421     		movs	r1, #52
 275 0004 F420     		movs	r0, #244
 276 0006 FFF7FEFF 		bl	BMP180_WriteByte
 277              	.LVL25:
  58:main.c        ****     CyDelay(8);
 278              		.loc 1 58 0
 279 000a 0820     		movs	r0, #8
 280 000c FFF7FEFF 		bl	CyDelay
 281              	.LVL26:
  59:main.c        ****     return (int32)BMP180_ReadWord(0xF6);
 282              		.loc 1 59 0
 283 0010 F620     		movs	r0, #246
ARM GAS  C:\Users\leonm\AppData\Local\Temp\ccOU2i1Z.s 			page 7


 284 0012 FFF7FEFF 		bl	BMP180_ReadWord
 285              	.LVL27:
  60:main.c        **** }
 286              		.loc 1 60 0
 287 0016 08BD     		pop	{r3, pc}
 288              		.cfi_endproc
 289              	.LFE68:
 290              		.size	BMP180_ReadRawPressure, .-BMP180_ReadRawPressure
 291              		.global	__aeabi_i2d
 292              		.global	__aeabi_ddiv
 293              		.global	__aeabi_d2f
 294              		.section	.text.BMP180_CalculateTemperature,"ax",%progbits
 295              		.align	2
 296              		.global	BMP180_CalculateTemperature
 297              		.thumb
 298              		.thumb_func
 299              		.type	BMP180_CalculateTemperature, %function
 300              	BMP180_CalculateTemperature:
 301              	.LFB69:
  61:main.c        **** 
  62:main.c        **** 
  63:main.c        **** float BMP180_CalculateTemperature(int16 ut, int32 *B5)
  64:main.c        **** {
 302              		.loc 1 64 0
 303              		.cfi_startproc
 304              		@ args = 0, pretend = 0, frame = 0
 305              		@ frame_needed = 0, uses_anonymous_args = 0
 306              	.LVL28:
 307 0000 10B5     		push	{r4, lr}
 308              		.cfi_def_cfa_offset 8
 309              		.cfi_offset 4, -8
 310              		.cfi_offset 14, -4
  65:main.c        ****     int32 X1 = (((int32)ut - AC6) * AC5) >> 15;
 311              		.loc 1 65 0
 312 0002 0F4B     		ldr	r3, .L18
 313 0004 1C88     		ldrh	r4, [r3]
 314 0006 001B     		subs	r0, r0, r4
 315              	.LVL29:
 316 0008 0E4B     		ldr	r3, .L18+4
 317 000a 1C88     		ldrh	r4, [r3]
 318 000c 00FB04F0 		mul	r0, r0, r4
 319 0010 C413     		asrs	r4, r0, #15
 320              	.LVL30:
  66:main.c        ****     int32 X2 = ((int32)MC << 11) / (X1 + MD);
 321              		.loc 1 66 0
 322 0012 0D4B     		ldr	r3, .L18+8
 323 0014 B3F90030 		ldrsh	r3, [r3]
 324 0018 DA02     		lsls	r2, r3, #11
 325 001a 0C4B     		ldr	r3, .L18+12
 326 001c B3F90000 		ldrsh	r0, [r3]
 327 0020 2044     		add	r0, r0, r4
 328 0022 92FBF0F3 		sdiv	r3, r2, r0
 329              	.LVL31:
  67:main.c        ****     *B5 = X1 + X2;
 330              		.loc 1 67 0
 331 0026 E018     		adds	r0, r4, r3
 332 0028 0860     		str	r0, [r1]
ARM GAS  C:\Users\leonm\AppData\Local\Temp\ccOU2i1Z.s 			page 8


  68:main.c        ****     float T = (((*B5 + 8) >> 4)) / 10.0;  // Temperature in °C
 333              		.loc 1 68 0
 334 002a 0830     		adds	r0, r0, #8
 335 002c 0011     		asrs	r0, r0, #4
 336 002e FFF7FEFF 		bl	__aeabi_i2d
 337              	.LVL32:
 338 0032 0022     		movs	r2, #0
 339 0034 064B     		ldr	r3, .L18+16
 340 0036 FFF7FEFF 		bl	__aeabi_ddiv
 341              	.LVL33:
 342 003a FFF7FEFF 		bl	__aeabi_d2f
 343              	.LVL34:
  69:main.c        ****     return T;
  70:main.c        **** }
 344              		.loc 1 70 0
 345 003e 10BD     		pop	{r4, pc}
 346              	.LVL35:
 347              	.L19:
 348              		.align	2
 349              	.L18:
 350 0040 00000000 		.word	AC6
 351 0044 00000000 		.word	AC5
 352 0048 00000000 		.word	MC
 353 004c 00000000 		.word	MD
 354 0050 00002440 		.word	1076101120
 355              		.cfi_endproc
 356              	.LFE69:
 357              		.size	BMP180_CalculateTemperature, .-BMP180_CalculateTemperature
 358              		.section	.text.BMP180_CalculatePressure,"ax",%progbits
 359              		.align	2
 360              		.global	BMP180_CalculatePressure
 361              		.thumb
 362              		.thumb_func
 363              		.type	BMP180_CalculatePressure, %function
 364              	BMP180_CalculatePressure:
 365              	.LFB70:
  71:main.c        **** 
  72:main.c        **** int32 BMP180_CalculatePressure(int32 up, int32 B5)
  73:main.c        **** {
 366              		.loc 1 73 0
 367              		.cfi_startproc
 368              		@ args = 0, pretend = 0, frame = 0
 369              		@ frame_needed = 0, uses_anonymous_args = 0
 370              		@ link register save eliminated.
 371              	.LVL36:
 372 0000 10B4     		push	{r4}
 373              		.cfi_def_cfa_offset 4
 374              		.cfi_offset 4, -4
  74:main.c        ****     int32 B6 = B5 - 4000;
 375              		.loc 1 74 0
 376 0002 A1F57A61 		sub	r1, r1, #4000
 377              	.LVL37:
  75:main.c        ****     int32 X1 = (B2 * ((B6 * B6) >> 12)) >> 11;
 378              		.loc 1 75 0
 379 0006 01FB01F3 		mul	r3, r1, r1
 380 000a 1B13     		asrs	r3, r3, #12
 381 000c 264A     		ldr	r2, .L25
ARM GAS  C:\Users\leonm\AppData\Local\Temp\ccOU2i1Z.s 			page 9


 382 000e B2F90040 		ldrsh	r4, [r2]
 383 0012 03FB04F4 		mul	r4, r3, r4
 384              	.LVL38:
  76:main.c        ****     int32 X2 = (AC2 * B6) >> 11;
 385              		.loc 1 76 0
 386 0016 254A     		ldr	r2, .L25+4
 387 0018 B2F90020 		ldrsh	r2, [r2]
 388 001c 01FB02F2 		mul	r2, r1, r2
 389 0020 D212     		asrs	r2, r2, #11
 390              	.LVL39:
  77:main.c        ****     int32 X3 = X1 + X2;
 391              		.loc 1 77 0
 392 0022 02EBE424 		add	r4, r2, r4, asr #11
 393              	.LVL40:
  78:main.c        ****     int32 B3 = (((((int32)AC1) * 4 + X3) + 2) / 4);
 394              		.loc 1 78 0
 395 0026 224A     		ldr	r2, .L25+8
 396              	.LVL41:
 397 0028 B2F90020 		ldrsh	r2, [r2]
 398 002c 04EB8202 		add	r2, r4, r2, lsl #2
 399 0030 0232     		adds	r2, r2, #2
 400 0032 00D5     		bpl	.L21
 401 0034 0332     		adds	r2, r2, #3
 402              	.L21:
 403              	.LVL42:
  79:main.c        ****     X1 = (AC3 * B6) >> 13;
 404              		.loc 1 79 0
 405 0036 1F4C     		ldr	r4, .L25+12
 406              	.LVL43:
 407 0038 B4F90040 		ldrsh	r4, [r4]
 408 003c 01FB04F1 		mul	r1, r1, r4
 409              	.LVL44:
  80:main.c        ****     X2 = (B1 * ((B6 * B6) >> 12)) >> 16;
 410              		.loc 1 80 0
 411 0040 1D4C     		ldr	r4, .L25+16
 412 0042 B4F90040 		ldrsh	r4, [r4]
 413 0046 03FB04F3 		mul	r3, r3, r4
 414              	.LVL45:
 415 004a 1B14     		asrs	r3, r3, #16
 416              	.LVL46:
  81:main.c        ****     X3 = ((X1 + X2) + 2) >> 2;
 417              		.loc 1 81 0
 418 004c 03EB6133 		add	r3, r3, r1, asr #13
 419              	.LVL47:
 420 0050 0233     		adds	r3, r3, #2
 421 0052 9B10     		asrs	r3, r3, #2
 422              	.LVL48:
  82:main.c        ****     uint32 B4 = (AC4 * (uint32)(X3 + 32768)) >> 15;
 423              		.loc 1 82 0
 424 0054 03F50043 		add	r3, r3, #32768
 425              	.LVL49:
 426 0058 1849     		ldr	r1, .L25+20
 427              	.LVL50:
 428 005a 0988     		ldrh	r1, [r1]
 429 005c 03FB01F3 		mul	r3, r3, r1
 430              	.LVL51:
 431 0060 DB0B     		lsrs	r3, r3, #15
ARM GAS  C:\Users\leonm\AppData\Local\Temp\ccOU2i1Z.s 			page 10


 432              	.LVL52:
  83:main.c        ****     uint32 B7 = ((uint32)up - B3) * 50000;
 433              		.loc 1 83 0
 434 0062 A0EBA202 		sub	r2, r0, r2, asr #2
 435              	.LVL53:
 436 0066 4CF25031 		movw	r1, #50000
 437 006a 01FB02F2 		mul	r2, r1, r2
 438              	.LVL54:
  84:main.c        ****     int32 P;
  85:main.c        ****     if (B7 < 0x80000000)
 439              		.loc 1 85 0
 440 006e 002A     		cmp	r2, #0
 441 0070 03DB     		blt	.L22
  86:main.c        ****     {
  87:main.c        ****         P = (B7 << 1) / B4;
 442              		.loc 1 87 0
 443 0072 5200     		lsls	r2, r2, #1
 444              	.LVL55:
 445 0074 B2FBF3F3 		udiv	r3, r2, r3
 446              	.LVL56:
 447 0078 02E0     		b	.L23
 448              	.LVL57:
 449              	.L22:
  88:main.c        ****     }
  89:main.c        ****     else
  90:main.c        ****     {
  91:main.c        ****         P = (B7 / B4) << 1;
 450              		.loc 1 91 0
 451 007a B2FBF3F3 		udiv	r3, r2, r3
 452              	.LVL58:
 453 007e 5B00     		lsls	r3, r3, #1
 454              	.LVL59:
 455              	.L23:
  92:main.c        ****     }
  93:main.c        ****     X1 = (P >> 8) * (P >> 8);
 456              		.loc 1 93 0
 457 0080 1812     		asrs	r0, r3, #8
 458              	.LVL60:
 459 0082 00FB00F0 		mul	r0, r0, r0
 460              	.LVL61:
  94:main.c        ****     X1 = (X1 * 3038) >> 16;
 461              		.loc 1 94 0
 462 0086 40F6DE32 		movw	r2, #3038
 463 008a 02FB00F0 		mul	r0, r2, r0
 464              	.LVL62:
  95:main.c        ****     X2 = (-7357 * P) >> 16;
 465              		.loc 1 95 0
 466 008e 0C4A     		ldr	r2, .L25+24
 467 0090 02FB03F2 		mul	r2, r2, r3
 468 0094 1214     		asrs	r2, r2, #16
 469              	.LVL63:
  96:main.c        ****     P = P + ((X1 + X2 + 3791) >> 4);
 470              		.loc 1 96 0
 471 0096 02EB2040 		add	r0, r2, r0, asr #16
 472              	.LVL64:
 473 009a 00F6CF60 		addw	r0, r0, #3791
 474              	.LVL65:
ARM GAS  C:\Users\leonm\AppData\Local\Temp\ccOU2i1Z.s 			page 11


  97:main.c        ****     return P;
  98:main.c        **** }
 475              		.loc 1 98 0
 476 009e 03EB2010 		add	r0, r3, r0, asr #4
 477              	.LVL66:
 478 00a2 10BC     		pop	{r4}
 479              		.cfi_restore 4
 480              		.cfi_def_cfa_offset 0
 481              	.LVL67:
 482 00a4 7047     		bx	lr
 483              	.L26:
 484 00a6 00BF     		.align	2
 485              	.L25:
 486 00a8 00000000 		.word	B2
 487 00ac 00000000 		.word	AC2
 488 00b0 00000000 		.word	AC1
 489 00b4 00000000 		.word	AC3
 490 00b8 00000000 		.word	B1
 491 00bc 00000000 		.word	AC4
 492 00c0 43E3FFFF 		.word	-7357
 493              		.cfi_endproc
 494              	.LFE70:
 495              		.size	BMP180_CalculatePressure, .-BMP180_CalculatePressure
 496              		.section	.text.BMP180_Init,"ax",%progbits
 497              		.align	2
 498              		.global	BMP180_Init
 499              		.thumb
 500              		.thumb_func
 501              		.type	BMP180_Init, %function
 502              	BMP180_Init:
 503              	.LFB71:
  99:main.c        **** 
 100:main.c        **** 
 101:main.c        **** void BMP180_Init(void)
 102:main.c        **** {
 504              		.loc 1 102 0
 505              		.cfi_startproc
 506              		@ args = 0, pretend = 0, frame = 0
 507              		@ frame_needed = 0, uses_anonymous_args = 0
 508 0000 08B5     		push	{r3, lr}
 509              		.cfi_def_cfa_offset 8
 510              		.cfi_offset 3, -8
 511              		.cfi_offset 14, -4
 103:main.c        ****     I2C_Start();
 512              		.loc 1 103 0
 513 0002 FFF7FEFF 		bl	I2C_Start
 514              	.LVL68:
 104:main.c        ****     UART_Start();
 515              		.loc 1 104 0
 516 0006 FFF7FEFF 		bl	UART_Start
 517              	.LVL69:
 105:main.c        ****     BMP180_ReadCalibrationData();
 518              		.loc 1 105 0
 519 000a FFF7FEFF 		bl	BMP180_ReadCalibrationData
 520              	.LVL70:
 521 000e 08BD     		pop	{r3, pc}
 522              		.cfi_endproc
ARM GAS  C:\Users\leonm\AppData\Local\Temp\ccOU2i1Z.s 			page 12


 523              	.LFE71:
 524              		.size	BMP180_Init, .-BMP180_Init
 525              		.section	.text.UART_Print,"ax",%progbits
 526              		.align	2
 527              		.global	UART_Print
 528              		.thumb
 529              		.thumb_func
 530              		.type	UART_Print, %function
 531              	UART_Print:
 532              	.LFB72:
 106:main.c        **** 
 107:main.c        **** }
 108:main.c        **** 
 109:main.c        **** void UART_Print(const char *string)
 110:main.c        **** {
 533              		.loc 1 110 0
 534              		.cfi_startproc
 535              		@ args = 0, pretend = 0, frame = 0
 536              		@ frame_needed = 0, uses_anonymous_args = 0
 537              	.LVL71:
 538 0000 08B5     		push	{r3, lr}
 539              		.cfi_def_cfa_offset 8
 540              		.cfi_offset 3, -8
 541              		.cfi_offset 14, -4
 111:main.c        ****     UART_PutString(string);
 542              		.loc 1 111 0
 543 0002 FFF7FEFF 		bl	UART_PutString
 544              	.LVL72:
 545 0006 08BD     		pop	{r3, pc}
 546              		.cfi_endproc
 547              	.LFE72:
 548              		.size	UART_Print, .-UART_Print
 549              		.global	__aeabi_f2iz
 550              		.global	__aeabi_i2f
 551              		.global	__aeabi_fsub
 552              		.global	__aeabi_fmul
 553              		.section	.text.main,"ax",%progbits
 554              		.align	2
 555              		.global	main
 556              		.thumb
 557              		.thumb_func
 558              		.type	main, %function
 559              	main:
 560              	.LFB73:
 112:main.c        **** }
 113:main.c        **** 
 114:main.c        **** int main(void)
 115:main.c        **** {
 561              		.loc 1 115 0
 562              		.cfi_startproc
 563              		@ args = 0, pretend = 0, frame = 56
 564              		@ frame_needed = 0, uses_anonymous_args = 0
 565 0000 70B5     		push	{r4, r5, r6, lr}
 566              		.cfi_def_cfa_offset 16
 567              		.cfi_offset 4, -16
 568              		.cfi_offset 5, -12
 569              		.cfi_offset 6, -8
ARM GAS  C:\Users\leonm\AppData\Local\Temp\ccOU2i1Z.s 			page 13


 570              		.cfi_offset 14, -4
 571 0002 8EB0     		sub	sp, sp, #56
 572              		.cfi_def_cfa_offset 72
 116:main.c        ****     CyGlobalIntEnable;
 573              		.loc 1 116 0
 574              		.syntax unified
 575              	@ 116 "main.c" 1
 576 0004 62B6     		CPSIE   i
 577              	@ 0 "" 2
 117:main.c        ****     char buffer[50];
 118:main.c        **** 
 119:main.c        ****     BMP180_Init();
 578              		.loc 1 119 0
 579              		.thumb
 580              		.syntax unified
 581 0006 FFF7FEFF 		bl	BMP180_Init
 582              	.LVL73:
 583              	.L32:
 584              	.LBB2:
 120:main.c        **** 
 121:main.c        ****     for (;;)
 122:main.c        ****     {
 123:main.c        ****         int16 ut = BMP180_ReadRawTemperature();
 585              		.loc 1 123 0 discriminator 1
 586 000a FFF7FEFF 		bl	BMP180_ReadRawTemperature
 587              	.LVL74:
 588 000e 0546     		mov	r5, r0
 589              	.LVL75:
 124:main.c        ****         int32 up = BMP180_ReadRawPressure();
 590              		.loc 1 124 0 discriminator 1
 591 0010 FFF7FEFF 		bl	BMP180_ReadRawPressure
 592              	.LVL76:
 593 0014 0446     		mov	r4, r0
 594              	.LVL77:
 125:main.c        ****         int32 B5;
 126:main.c        ****         float temperature = BMP180_CalculateTemperature(ut, &B5);
 595              		.loc 1 126 0 discriminator 1
 596 0016 6946     		mov	r1, sp
 597 0018 2846     		mov	r0, r5
 598              	.LVL78:
 599 001a FFF7FEFF 		bl	BMP180_CalculateTemperature
 600              	.LVL79:
 601 001e 0546     		mov	r5, r0
 602              	.LVL80:
 127:main.c        ****         int32 pressure = BMP180_CalculatePressure(up, B5);
 603              		.loc 1 127 0 discriminator 1
 604 0020 0099     		ldr	r1, [sp]
 605 0022 2046     		mov	r0, r4
 606              	.LVL81:
 607 0024 FFF7FEFF 		bl	BMP180_CalculatePressure
 608              	.LVL82:
 609 0028 0646     		mov	r6, r0
 610              	.LVL83:
 128:main.c        ****         int16 temp_int = (int16)temperature;
 611              		.loc 1 128 0 discriminator 1
 612 002a 2846     		mov	r0, r5
 613              	.LVL84:
ARM GAS  C:\Users\leonm\AppData\Local\Temp\ccOU2i1Z.s 			page 14


 614 002c FFF7FEFF 		bl	__aeabi_f2iz
 615              	.LVL85:
 616 0030 04B2     		sxth	r4, r0
 617              	.LVL86:
 129:main.c        ****         int16 temp_frac = (int16)((temperature - temp_int) * 100);
 618              		.loc 1 129 0 discriminator 1
 619 0032 2046     		mov	r0, r4
 620 0034 FFF7FEFF 		bl	__aeabi_i2f
 621              	.LVL87:
 622 0038 0146     		mov	r1, r0
 623 003a 2846     		mov	r0, r5
 624 003c FFF7FEFF 		bl	__aeabi_fsub
 625              	.LVL88:
 626 0040 0E49     		ldr	r1, .L34
 627 0042 FFF7FEFF 		bl	__aeabi_fmul
 628              	.LVL89:
 629 0046 FFF7FEFF 		bl	__aeabi_f2iz
 630              	.LVL90:
 631 004a 03B2     		sxth	r3, r0
 632              	.LVL91:
 130:main.c        ****         sprintf(buffer, "Temperature: %d.%02d C\r\n", temp_int, (temp_frac < 0 ? -temp_frac : temp_
 633              		.loc 1 130 0 discriminator 1
 634 004c 002B     		cmp	r3, #0
 635 004e B8BF     		it	lt
 636 0050 5B42     		rsblt	r3, r3, #0
 637              	.LVL92:
 638 0052 2246     		mov	r2, r4
 639 0054 0A49     		ldr	r1, .L34+4
 640 0056 01A8     		add	r0, sp, #4
 641              	.LVL93:
 642 0058 FFF7FEFF 		bl	sprintf
 643              	.LVL94:
 131:main.c        ****         UART_Print(buffer);
 644              		.loc 1 131 0 discriminator 1
 645 005c 01A8     		add	r0, sp, #4
 646 005e FFF7FEFF 		bl	UART_Print
 647              	.LVL95:
 132:main.c        **** 
 133:main.c        ****         sprintf(buffer, "Pressure: %ld Pa\r\n", pressure);
 648              		.loc 1 133 0 discriminator 1
 649 0062 3246     		mov	r2, r6
 650 0064 0749     		ldr	r1, .L34+8
 651 0066 01A8     		add	r0, sp, #4
 652 0068 FFF7FEFF 		bl	sprintf
 653              	.LVL96:
 134:main.c        ****         UART_Print(buffer);
 654              		.loc 1 134 0 discriminator 1
 655 006c 01A8     		add	r0, sp, #4
 656 006e FFF7FEFF 		bl	UART_Print
 657              	.LVL97:
 135:main.c        **** 
 136:main.c        ****         CyDelay(2000);
 658              		.loc 1 136 0 discriminator 1
 659 0072 4FF4FA60 		mov	r0, #2000
 660 0076 FFF7FEFF 		bl	CyDelay
 661              	.LVL98:
 662 007a C6E7     		b	.L32
ARM GAS  C:\Users\leonm\AppData\Local\Temp\ccOU2i1Z.s 			page 15


 663              	.L35:
 664              		.align	2
 665              	.L34:
 666 007c 0000C842 		.word	1120403456
 667 0080 00000000 		.word	.LC0
 668 0084 1C000000 		.word	.LC1
 669              	.LBE2:
 670              		.cfi_endproc
 671              	.LFE73:
 672              		.size	main, .-main
 673              		.comm	AC6,2,2
 674              		.comm	AC5,2,2
 675              		.comm	AC4,2,2
 676              		.comm	MD,2,2
 677              		.comm	MC,2,2
 678              		.comm	MB,2,2
 679              		.comm	B2,2,2
 680              		.comm	B1,2,2
 681              		.comm	AC3,2,2
 682              		.comm	AC2,2,2
 683              		.comm	AC1,2,2
 684              		.section	.rodata.str1.4,"aMS",%progbits,1
 685              		.align	2
 686              	.LC0:
 687 0000 54656D70 		.ascii	"Temperature: %d.%02d C\015\012\000"
 687      65726174 
 687      7572653A 
 687      2025642E 
 687      25303264 
 688 0019 000000   		.space	3
 689              	.LC1:
 690 001c 50726573 		.ascii	"Pressure: %ld Pa\015\012\000"
 690      73757265 
 690      3A20256C 
 690      64205061 
 690      0D0A00
 691              		.text
 692              	.Letext0:
 693              		.file 2 "c:\\program files (x86)\\cypress\\psoc creator\\4.4\\psoc creator\\import\\gnu\\arm\\5.4.
 694              		.file 3 "c:\\program files (x86)\\cypress\\psoc creator\\4.4\\psoc creator\\import\\gnu\\arm\\5.4.
 695              		.file 4 "Generated_Source\\PSoC5/cytypes.h"
 696              		.file 5 "Generated_Source\\PSoC5/I2C.h"
 697              		.file 6 "Generated_Source\\PSoC5/CyLib.h"
 698              		.file 7 "Generated_Source\\PSoC5/UART.h"
 699              		.file 8 "c:\\program files (x86)\\cypress\\psoc creator\\4.4\\psoc creator\\import\\gnu\\arm\\5.4.
 700              		.file 9 "Generated_Source\\PSoC5/core_cm3.h"